; Function Attrs: mustprogress uwtable
define dso_local noundef zeroext i1 @_ZN10cmCTestSVN13LoadRevisionsEv(ptr noundef nonnull align 8 dereferenceable(816) %0) unnamed_addr #3 align 2 {
  %2 = getelementptr inbounds i8, ptr %0, i64 784
  %.sroa.05.08 = load ptr, ptr %2, align 8
  %.not9 = icmp eq ptr %.sroa.05.08, %2
  br i1 %.not9, label %._crit_edge, label %.lr.ph

.lr.ph:                                           ; preds = %1, %.lr.ph
  %.sroa.05.011 = phi ptr [ %.sroa.05.0, %.lr.ph ], [ %.sroa.05.08, %1 ]
  %.010 = phi i1 [ %5, %.lr.ph ], [ true, %1 ]
  %3 = getelementptr inbounds i8, ptr %.sroa.05.011, i64 16
  %4 = tail call noundef zeroext i1 @_ZN10cmCTestSVN13LoadRevisionsERNS_7SVNInfoE(ptr noundef nonnull align 8 dereferenceable(816) %0, ptr noundef nonnull align 8 dereferenceable(192) %3)
  %5 = select i1 %4, i1 %.010, i1 false
  %.sroa.05.0 = load ptr, ptr %.sroa.05.011, align 8
  %.not = icmp eq ptr %.sroa.05.0, %2
  br i1 %.not, label %._crit_edge, label %.lr.ph

._crit_edge:                                      ; preds = %.lr.ph, %1
  %.0.lcssa = phi i1 [ true, %1 ], [ %5, %.lr.ph ]
  ret i1 %.0.lcssa
}